ccopy_reg
_reconstructor
p1
(csklearn.linear_model.ridge
Ridge
p2
c__builtin__
object
p3
NtRp4
(dp5
S'normalize'
p6
I00
sS'fit_intercept'
p7
I01
sS'solver'
p8
S'auto'
p9
sS'max_iter'
p10
NsS'n_iter_'
p11
NsS'random_state'
p12
NsS'_sklearn_version'
p13
S'0.18.1'
p14
sS'tol'
p15
F0.001
sS'copy_X'
p16
I01
sS'alpha'
p17
F1
sS'coef_'
p18
cnumpy.core.multiarray
_reconstruct
p19
(cnumpy
ndarray
p20
(I0
tS'b'
tRp21
(I1
(I5
tcnumpy
dtype
p22
(S'f8'
I0
I1
tRp23
(I3
S'<'
NNNI-1
I-1
I0
tbI00
S'\x1a\xcei\x9e\x8d\xa2i\xbf\xeb~\xe8\xe4\x99\xf7\xa7\xbffR\x06|\xf6\x1b\xb8?\x1c\xbfx\x99\xa9\n\xa0\xbfet\xf9p\x11:\xa7?'
tbsS'intercept_'
p24
cnumpy.core.multiarray
scalar
p25
(g23
S'5a\x9f\xcfsb\xd8\xbf'
tRp26
sb.